
memory_partition02:     file format elf64-x86-64


Disassembly of section .init:

0000000000001000 <_init>:
    1000:	f3 0f 1e fa          	endbr64
    1004:	48 83 ec 08          	sub    $0x8,%rsp
    1008:	48 8b 05 c9 2f 00 00 	mov    0x2fc9(%rip),%rax        # 3fd8 <__gmon_start__@Base>
    100f:	48 85 c0             	test   %rax,%rax
    1012:	74 02                	je     1016 <_init+0x16>
    1014:	ff d0                	call   *%rax
    1016:	48 83 c4 08          	add    $0x8,%rsp
    101a:	c3                   	ret

Disassembly of section .plt:

0000000000001020 <printf@plt-0x10>:
    1020:	ff 35 ca 2f 00 00    	push   0x2fca(%rip)        # 3ff0 <_GLOBAL_OFFSET_TABLE_+0x8>
    1026:	ff 25 cc 2f 00 00    	jmp    *0x2fcc(%rip)        # 3ff8 <_GLOBAL_OFFSET_TABLE_+0x10>
    102c:	0f 1f 40 00          	nopl   0x0(%rax)

0000000000001030 <printf@plt>:
    1030:	ff 25 ca 2f 00 00    	jmp    *0x2fca(%rip)        # 4000 <printf@GLIBC_2.2.5>
    1036:	68 00 00 00 00       	push   $0x0
    103b:	e9 e0 ff ff ff       	jmp    1020 <_init+0x20>

0000000000001040 <_ZdlPv@plt>:
    1040:	ff 25 c2 2f 00 00    	jmp    *0x2fc2(%rip)        # 4008 <_ZdlPv@GLIBCXX_3.4>
    1046:	68 01 00 00 00       	push   $0x1
    104b:	e9 d0 ff ff ff       	jmp    1020 <_init+0x20>

0000000000001050 <_Znwm@plt>:
    1050:	ff 25 ba 2f 00 00    	jmp    *0x2fba(%rip)        # 4010 <_Znwm@GLIBCXX_3.4>
    1056:	68 02 00 00 00       	push   $0x2
    105b:	e9 c0 ff ff ff       	jmp    1020 <_init+0x20>

0000000000001060 <free@plt>:
    1060:	ff 25 b2 2f 00 00    	jmp    *0x2fb2(%rip)        # 4018 <free@GLIBC_2.2.5>
    1066:	68 03 00 00 00       	push   $0x3
    106b:	e9 b0 ff ff ff       	jmp    1020 <_init+0x20>

0000000000001070 <malloc@plt>:
    1070:	ff 25 aa 2f 00 00    	jmp    *0x2faa(%rip)        # 4020 <malloc@GLIBC_2.2.5>
    1076:	68 04 00 00 00       	push   $0x4
    107b:	e9 a0 ff ff ff       	jmp    1020 <_init+0x20>

Disassembly of section .plt.got:

0000000000001080 <__cxa_finalize@plt>:
    1080:	ff 25 3a 2f 00 00    	jmp    *0x2f3a(%rip)        # 3fc0 <__cxa_finalize@GLIBC_2.2.5>
    1086:	66 90                	xchg   %ax,%ax

Disassembly of section .text:

0000000000001090 <_start>:
    1090:	f3 0f 1e fa          	endbr64
    1094:	31 ed                	xor    %ebp,%ebp
    1096:	49 89 d1             	mov    %rdx,%r9
    1099:	5e                   	pop    %rsi
    109a:	48 89 e2             	mov    %rsp,%rdx
    109d:	48 83 e4 f0          	and    $0xfffffffffffffff0,%rsp
    10a1:	50                   	push   %rax
    10a2:	54                   	push   %rsp
    10a3:	45 31 c0             	xor    %r8d,%r8d
    10a6:	31 c9                	xor    %ecx,%ecx
    10a8:	48 8d 3d d1 01 00 00 	lea    0x1d1(%rip),%rdi        # 1280 <main>
    10af:	ff 15 13 2f 00 00    	call   *0x2f13(%rip)        # 3fc8 <__libc_start_main@GLIBC_2.34>
    10b5:	f4                   	hlt
    10b6:	66 2e 0f 1f 84 00 00 	cs nopw 0x0(%rax,%rax,1)
    10bd:	00 00 00 

00000000000010c0 <deregister_tm_clones>:
    10c0:	48 8d 3d 79 2f 00 00 	lea    0x2f79(%rip),%rdi        # 4040 <__TMC_END__>
    10c7:	48 8d 05 72 2f 00 00 	lea    0x2f72(%rip),%rax        # 4040 <__TMC_END__>
    10ce:	48 39 f8             	cmp    %rdi,%rax
    10d1:	74 15                	je     10e8 <deregister_tm_clones+0x28>
    10d3:	48 8b 05 f6 2e 00 00 	mov    0x2ef6(%rip),%rax        # 3fd0 <_ITM_deregisterTMCloneTable@Base>
    10da:	48 85 c0             	test   %rax,%rax
    10dd:	74 09                	je     10e8 <deregister_tm_clones+0x28>
    10df:	ff e0                	jmp    *%rax
    10e1:	0f 1f 80 00 00 00 00 	nopl   0x0(%rax)
    10e8:	c3                   	ret
    10e9:	0f 1f 80 00 00 00 00 	nopl   0x0(%rax)

00000000000010f0 <register_tm_clones>:
    10f0:	48 8d 3d 49 2f 00 00 	lea    0x2f49(%rip),%rdi        # 4040 <__TMC_END__>
    10f7:	48 8d 35 42 2f 00 00 	lea    0x2f42(%rip),%rsi        # 4040 <__TMC_END__>
    10fe:	48 29 fe             	sub    %rdi,%rsi
    1101:	48 89 f0             	mov    %rsi,%rax
    1104:	48 c1 ee 3f          	shr    $0x3f,%rsi
    1108:	48 c1 f8 03          	sar    $0x3,%rax
    110c:	48 01 c6             	add    %rax,%rsi
    110f:	48 d1 fe             	sar    $1,%rsi
    1112:	74 14                	je     1128 <register_tm_clones+0x38>
    1114:	48 8b 05 c5 2e 00 00 	mov    0x2ec5(%rip),%rax        # 3fe0 <_ITM_registerTMCloneTable@Base>
    111b:	48 85 c0             	test   %rax,%rax
    111e:	74 08                	je     1128 <register_tm_clones+0x38>
    1120:	ff e0                	jmp    *%rax
    1122:	66 0f 1f 44 00 00    	nopw   0x0(%rax,%rax,1)
    1128:	c3                   	ret
    1129:	0f 1f 80 00 00 00 00 	nopl   0x0(%rax)

0000000000001130 <__do_global_dtors_aux>:
    1130:	f3 0f 1e fa          	endbr64
    1134:	80 3d 05 2f 00 00 00 	cmpb   $0x0,0x2f05(%rip)        # 4040 <__TMC_END__>
    113b:	75 2b                	jne    1168 <__do_global_dtors_aux+0x38>
    113d:	55                   	push   %rbp
    113e:	48 83 3d 7a 2e 00 00 	cmpq   $0x0,0x2e7a(%rip)        # 3fc0 <__cxa_finalize@GLIBC_2.2.5>
    1145:	00 
    1146:	48 89 e5             	mov    %rsp,%rbp
    1149:	74 0c                	je     1157 <__do_global_dtors_aux+0x27>
    114b:	48 8b 3d de 2e 00 00 	mov    0x2ede(%rip),%rdi        # 4030 <__dso_handle>
    1152:	e8 29 ff ff ff       	call   1080 <__cxa_finalize@plt>
    1157:	e8 64 ff ff ff       	call   10c0 <deregister_tm_clones>
    115c:	c6 05 dd 2e 00 00 01 	movb   $0x1,0x2edd(%rip)        # 4040 <__TMC_END__>
    1163:	5d                   	pop    %rbp
    1164:	c3                   	ret
    1165:	0f 1f 00             	nopl   (%rax)
    1168:	c3                   	ret
    1169:	0f 1f 80 00 00 00 00 	nopl   0x0(%rax)

0000000000001170 <frame_dummy>:
    1170:	f3 0f 1e fa          	endbr64
    1174:	e9 77 ff ff ff       	jmp    10f0 <register_tm_clones>
    1179:	0f 1f 80 00 00 00 00 	nopl   0x0(%rax)

0000000000001180 <_Z4funcv>:
    1180:	55                   	push   %rbp
    1181:	48 89 e5             	mov    %rsp,%rbp
    1184:	48 83 ec 30          	sub    $0x30,%rsp
    1188:	c7 45 f8 01 00 00 00 	movl   $0x1,-0x8(%rbp)
    118f:	c7 45 f4 28 00 00 00 	movl   $0x28,-0xc(%rbp)
    1196:	bf 04 00 00 00       	mov    $0x4,%edi
    119b:	e8 b0 fe ff ff       	call   1050 <_Znwm@plt>
    11a0:	c7 00 3c 00 00 00    	movl   $0x3c,(%rax)
    11a6:	48 89 45 e8          	mov    %rax,-0x18(%rbp)
    11aa:	bf 04 00 00 00       	mov    $0x4,%edi
    11af:	e8 bc fe ff ff       	call   1070 <malloc@plt>
    11b4:	48 89 45 e0          	mov    %rax,-0x20(%rbp)
    11b8:	48 8b 45 e0          	mov    -0x20(%rbp),%rax
    11bc:	f3 0f 10 05 40 0e 00 	movss  0xe40(%rip),%xmm0        # 2004 <_IO_stdin_used+0x4>
    11c3:	00 
    11c4:	f3 0f 11 00          	movss  %xmm0,(%rax)
    11c8:	48 8d 3d 3d 0e 00 00 	lea    0xe3d(%rip),%rdi        # 200c <R_val+0x4>
    11cf:	48 8d 75 fc          	lea    -0x4(%rbp),%rsi
    11d3:	b0 00                	mov    $0x0,%al
    11d5:	e8 56 fe ff ff       	call   1030 <printf@plt>
    11da:	48 8d 3d 44 0e 00 00 	lea    0xe44(%rip),%rdi        # 2025 <R_val+0x1d>
    11e1:	48 8d 35 60 2e 00 00 	lea    0x2e60(%rip),%rsi        # 4048 <_ZZ4funcvE6b_val1>
    11e8:	b0 00                	mov    $0x0,%al
    11ea:	e8 41 fe ff ff       	call   1030 <printf@plt>
    11ef:	48 8d 3d 48 0e 00 00 	lea    0xe48(%rip),%rdi        # 203e <R_val+0x36>
    11f6:	48 8d 35 3f 2e 00 00 	lea    0x2e3f(%rip),%rsi        # 403c <_ZZ4funcvE5d_val>
    11fd:	b0 00                	mov    $0x0,%al
    11ff:	e8 2c fe ff ff       	call   1030 <printf@plt>
    1204:	48 8d 3d 4c 0e 00 00 	lea    0xe4c(%rip),%rdi        # 2057 <R_val+0x4f>
    120b:	48 8d 75 f8          	lea    -0x8(%rbp),%rsi
    120f:	b0 00                	mov    $0x0,%al
    1211:	e8 1a fe ff ff       	call   1030 <printf@plt>
    1216:	48 8d 3d 53 0e 00 00 	lea    0xe53(%rip),%rdi        # 2070 <R_val+0x68>
    121d:	48 8d 75 f4          	lea    -0xc(%rbp),%rsi
    1221:	b0 00                	mov    $0x0,%al
    1223:	e8 08 fe ff ff       	call   1030 <printf@plt>
    1228:	48 8b 75 e8          	mov    -0x18(%rbp),%rsi
    122c:	48 8d 3d 56 0e 00 00 	lea    0xe56(%rip),%rdi        # 2089 <R_val+0x81>
    1233:	b0 00                	mov    $0x0,%al
    1235:	e8 f6 fd ff ff       	call   1030 <printf@plt>
    123a:	48 8b 75 e0          	mov    -0x20(%rbp),%rsi
    123e:	48 8d 3d 5d 0e 00 00 	lea    0xe5d(%rip),%rdi        # 20a2 <R_val+0x9a>
    1245:	b0 00                	mov    $0x0,%al
    1247:	e8 e4 fd ff ff       	call   1030 <printf@plt>
    124c:	48 8b 45 e0          	mov    -0x20(%rbp),%rax
    1250:	48 89 45 d8          	mov    %rax,-0x28(%rbp)
    1254:	48 83 f8 00          	cmp    $0x0,%rax
    1258:	0f 84 09 00 00 00    	je     1267 <_Z4funcv+0xe7>
    125e:	48 8b 7d d8          	mov    -0x28(%rbp),%rdi
    1262:	e8 d9 fd ff ff       	call   1040 <_ZdlPv@plt>
    1267:	48 8b 7d e8          	mov    -0x18(%rbp),%rdi
    126b:	e8 f0 fd ff ff       	call   1060 <free@plt>
    1270:	48 83 c4 30          	add    $0x30,%rsp
    1274:	5d                   	pop    %rbp
    1275:	c3                   	ret
    1276:	66 2e 0f 1f 84 00 00 	cs nopw 0x0(%rax,%rax,1)
    127d:	00 00 00 

0000000000001280 <main>:
    1280:	55                   	push   %rbp
    1281:	48 89 e5             	mov    %rsp,%rbp
    1284:	48 83 ec 10          	sub    $0x10,%rsp
    1288:	c7 45 fc 00 00 00 00 	movl   $0x0,-0x4(%rbp)
    128f:	89 7d f8             	mov    %edi,-0x8(%rbp)
    1292:	48 89 75 f0          	mov    %rsi,-0x10(%rbp)
    1296:	e8 e5 fe ff ff       	call   1180 <_Z4funcv>
    129b:	48 8d 05 96 2d 00 00 	lea    0x2d96(%rip),%rax        # 4038 <D_val>
    12a2:	8b 30                	mov    (%rax),%esi
    12a4:	48 8d 3d 10 0e 00 00 	lea    0xe10(%rip),%rdi        # 20bb <R_val+0xb3>
    12ab:	b0 00                	mov    $0x0,%al
    12ad:	e8 7e fd ff ff       	call   1030 <printf@plt>
    12b2:	48 8d 05 4f 0d 00 00 	lea    0xd4f(%rip),%rax        # 2008 <R_val>
    12b9:	8b 30                	mov    (%rax),%esi
    12bb:	48 8d 3d 04 0e 00 00 	lea    0xe04(%rip),%rdi        # 20c6 <R_val+0xbe>
    12c2:	b0 00                	mov    $0x0,%al
    12c4:	e8 67 fd ff ff       	call   1030 <printf@plt>
    12c9:	31 c0                	xor    %eax,%eax
    12cb:	48 83 c4 10          	add    $0x10,%rsp
    12cf:	5d                   	pop    %rbp
    12d0:	c3                   	ret

Disassembly of section .fini:

00000000000012d4 <_fini>:
    12d4:	f3 0f 1e fa          	endbr64
    12d8:	48 83 ec 08          	sub    $0x8,%rsp
    12dc:	48 83 c4 08          	add    $0x8,%rsp
    12e0:	c3                   	ret
